MODULE windows x86 36AD3C9D54314027903A0E96A586A9BD8 TestApp.pdb
FUNC 11420 42 10 test2(unsigned long,unsigned int,unsigned short,unsigned char)
PUBLIC 11464 0 printf
FUNC 11480 42 14 test3(unsigned __int64,unsigned int,unsigned short,unsigned char)
FUNC 114e0 44 14 test4(__int64,int,short,signed char)
FUNC 11540 44 14 test5(bool,long,void *,char *,char const *)
FUNC 115a0 25 14 test6(float,double,double)
FUNC 11600 32 4 _RTC_AllocaHelper(_RTC_ALLOCA_NODE *,unsigned int,_RTC_ALLOCA_NODE * *)
FUNC 11640 d1 4 _RTC_CheckStackVars2(void *,_RTC_framedesc *,_RTC_ALLOCA_NODE *)
FUNC 11750 58 0 _RTC_CheckStackVars(void *,_RTC_framedesc *)
FUNC 117c0 25 0 _RTC_CheckEsp()
FUNC 117f0 29 0 _RTC_InitBase()
FUNC 11830 13 0 _RTC_Shutdown()
FUNC 11850 88 0 pre_c_init()
FUNC 11900 58 0 pre_cpp_init()
FUNC 11970 b 0 NtCurrentTeb()
FUNC 11980 237 0 __tmainCRTStartup()
FUNC 11bc0 25 10 test7(signed char,wchar_t,wchar_t *,char * *)
FUNC 11bf0 49 8 testC(int,short)
FUNC 11c50 82 0 check_managed_app()
FUNC 11d00 f 0 wmainCRTStartup()
FUNC 11d20 99 4 DebuggerProbe(unsigned long)
FUNC 11de0 ab 10 DebuggerRuntime(unsigned long,int,void *,wchar_t const *)
FUNC 11ec0 168 c _RTC_AllocaFailure(void *,_RTC_ALLOCA_NODE *,int)
FUNC 12030 49 10 test1(long,int,short,char)
FUNC 12090 4e 8 _RTC_Failure(void *,int)
FUNC 12100 f9 8 _RTC_StackFailure(void *,char const *)
FUNC 12240 68 10 _getMemBlockDataString(char *,char *,char *,unsigned int)
FUNC 122d0 1ef 10 failwithmessage(void *,int,int,char const *)
FUNC 124c0 46 8 wmain(int,wchar_t * *)
FUNC 12540 f7 4 _RTC_UninitUse(char const *)
FUNC 12680 6 4 _RTC_GetErrorFunc(void const *)
FUNC 12690 6 4 _RTC_GetErrorFuncW(void const *)
FUNC 126a0 18 4 _RTC_GetErrDesc(_RTC_ErrorNumber)
FUNC 126c0 6 0 _RTC_NumErrors()
FUNC 126d0 1d 4 _RTC_SetErrorFunc((int,char const *,int,char const *,char const *,...))
FUNC 12700 1d 4 _RTC_SetErrorFuncW((int,wchar_t const *,int,wchar_t const *,wchar_t const *,...))
FUNC 12730 23 8 _RTC_SetErrorType(_RTC_ErrorNumber,int)
PUBLIC 1275c 0 _CRT_RTC_INITW
FUNC 12770 65 4 __CxxUnhandledExceptionFilter(_EXCEPTION_POINTERS *)
FUNC 127f0 14 0 __CxxSetUnhandledExceptionFilter()
PUBLIC 1280a 0 _XcptFilter
PUBLIC 12810 0 _amsg_exit
FUNC 12820 7 0 _wsetargv()
PUBLIC 12828 0 __wgetmainargs
PUBLIC 1282e 0 __set_app_type
PUBLIC 12834 0 _CrtDbgReportW
PUBLIC 1283a 0 _CrtSetCheckCount
FUNC 12840 73 8 _FindPESection(unsigned char *,unsigned long)
FUNC 128d0 12b 4 _IsNonwritableInCurrentImage(unsigned char *)
FUNC 12a50 5d 4 _ValidateImageBase(unsigned char *)
PUBLIC 12ac4 0 exit
PUBLIC 12aca 0 _exit
PUBLIC 12ad0 0 _cexit
FUNC 12ae0 dd 0 __security_init_cookie()
FUNC 12c00 7 4 _matherr(_exception *)
FUNC 12c10 a9 0 __atonexitinit()
FUNC 12cf0 f1 4 _onexit(())
FUNC 12e20 2b 4 atexit(())
FUNC 12e60 25 0 _RTC_Initialize()
FUNC 12e90 25 0 _RTC_Terminate()
PUBLIC 12ebe 0 _configthreadlocale
FUNC 12ed0 26 18 _invoke_watson_if_error(int,wchar_t const *,wchar_t const *,wchar_t const *,unsigned int,unsigned int)
FUNC 12f00 35 0 _setdefaultprecision(...)
PUBLIC 12f42 0 __setusermatherr
PUBLIC 12f48 0 _initterm_e
PUBLIC 12f4e 0 _initterm
FUNC 12f60 27 10 _except_handler4(_EXCEPTION_RECORD *,_EXCEPTION_REGISTRATION_RECORD *,_CONTEXT *,void *)
FUNC 12f90 136 0 GetPdbDll()
FUNC 13120 215 0 GetPdbDllFromInstallPath()
FUNC 133c0 cf c GetPdbDllPathFromFilePath(wchar_t const *,wchar_t *,unsigned int)
FUNC 134d0 2ae 18 _RTC_GetSrcLine(unsigned char *,wchar_t *,unsigned long,int *,wchar_t *,unsigned long)
FUNC 13830 f 0 __security_check_cookie(unsigned int)
PUBLIC 13842 0 terminate
PUBLIC 13848 0 __crtSetUnhandledExceptionFilter
PUBLIC 1384e 0 _lock
PUBLIC 13854 0 _unlock
PUBLIC 1385a 0 _calloc_dbg
PUBLIC 13860 0 __dllonexit
PUBLIC 13866 0 _invoke_watson
PUBLIC 1386c 0 _controlfp_s
PUBLIC 13872 0 _except_handler4_common
PUBLIC 13878 0 wcscpy_s
PUBLIC 1387e 0 _wmakepath_s
PUBLIC 13884 0 _wsplitpath_s
FUNC 13890 46 4 __raise_securityfailure(_EXCEPTION_POINTERS *)
FUNC 138f0 102 0 __report_gsfailure()
FUNC 13a40 c 0 __report_rangecheckfailure()
FUNC 13a50 d2 4 __report_securityfailure(unsigned long)
FUNC 13b60 125 c __report_securityfailureEx(unsigned long,unsigned long,void * *)
PUBLIC 13cce 0 _crt_debugger_hook
PUBLIC 13cd4 0 __crtUnhandledException
PUBLIC 13cda 0 __crtTerminateProcess
PUBLIC 13ce0 4 EncodePointer
PUBLIC 13ce6 0 IsDebuggerPresent
PUBLIC 13cec 10 RaiseException
PUBLIC 13cf2 0 GetLastError
PUBLIC 13cf8 8 GetProcAddress
PUBLIC 13cfe c LoadLibraryExW
PUBLIC 13d04 4 lstrlenA
PUBLIC 13d0a 4 LoadLibraryW
PUBLIC 13d10 18 MultiByteToWideChar
PUBLIC 13d16 20 WideCharToMultiByte
PUBLIC 13d1c 4 QueryPerformanceCounter
PUBLIC 13d22 0 GetCurrentProcessId
PUBLIC 13d28 0 GetCurrentThreadId
PUBLIC 13d2e 4 GetSystemTimeAsFileTime
PUBLIC 13d34 4 DecodePointer
PUBLIC 13d3a c HeapAlloc
PUBLIC 13d40 c HeapFree
PUBLIC 13d46 0 GetProcessHeap
PUBLIC 13d4c c VirtualQuery
PUBLIC 13d52 4 FreeLibrary
PUBLIC 13d58 c GetModuleFileNameW
PUBLIC 13d5e 4 GetModuleHandleW
PUBLIC 13d64 4 IsProcessorFeaturePresent
STACK WIN 4 11420 42 1e 0 10 c c0 0 1 $T0 $ebp = $eip $T0 4 + ^ = $ebp $T0 ^ = $esp $T0 8 + =  $20 $T0 196 - ^ =  $23 $T0 200 - ^ =  $24 $T0 204 - ^ = 
STACK WIN 4 11480 42 1e 0 14 c c0 0 1 $T0 $ebp = $eip $T0 4 + ^ = $ebp $T0 ^ = $esp $T0 8 + =  $20 $T0 196 - ^ =  $23 $T0 200 - ^ =  $24 $T0 204 - ^ = 
STACK WIN 4 114e0 44 1e 0 14 c c0 0 1 $T0 $ebp = $eip $T0 4 + ^ = $ebp $T0 ^ = $esp $T0 8 + =  $20 $T0 196 - ^ =  $23 $T0 200 - ^ =  $24 $T0 204 - ^ = 
STACK WIN 4 11540 44 1e 0 14 c c0 0 1 $T0 $ebp = $eip $T0 4 + ^ = $ebp $T0 ^ = $esp $T0 8 + =  $20 $T0 196 - ^ =  $23 $T0 200 - ^ =  $24 $T0 204 - ^ = 
STACK WIN 4 115a0 25 1e 0 14 c c0 0 1 $T0 $ebp = $eip $T0 4 + ^ = $ebp $T0 ^ = $esp $T0 8 + =  $20 $T0 196 - ^ =  $23 $T0 200 - ^ =  $24 $T0 204 - ^ = 
STACK WIN 4 11600 32 7 0 4 0 0 0 1 $T0 $ebp = $eip $T0 4 + ^ = $ebp $T0 ^ = $esp $T0 8 + = 
STACK WIN 4 11604 2a 3 0 4 4 0 0 1 $T0 $ebp = $eip $T0 4 + ^ = $ebp $T0 ^ = $esp $T0 8 + =  $20 $T0 4 - ^ = 
STACK WIN 4 11605 28 2 0 4 8 0 0 1 $T0 $ebp = $eip $T0 4 + ^ = $ebp $T0 ^ = $esp $T0 8 + =  $20 $T0 4 - ^ =  $23 $T0 8 - ^ = 
STACK WIN 4 11619 13 0 0 4 c 0 0 1 $T0 $ebp = $eip $T0 4 + ^ = $ebp $T0 ^ = $esp $T0 8 + =  $20 $T0 4 - ^ =  $23 $T0 8 - ^ =  $24 $T0 12 - ^ = 
STACK WIN 4 11640 d1 c 0 4 0 4 0 1 $T0 $ebp = $eip $T0 4 + ^ = $ebp $T0 ^ = $esp $T0 8 + = 
STACK WIN 4 11645 c6 7 0 4 4 4 0 1 $T0 $ebp = $eip $T0 4 + ^ = $ebp $T0 ^ = $esp $T0 8 + =  $20 $T0 8 - ^ = 
STACK WIN 4 11648 c2 4 0 4 8 4 0 1 $T0 $ebp = $eip $T0 4 + ^ = $ebp $T0 ^ = $esp $T0 8 + =  $20 $T0 8 - ^ =  $23 $T0 12 - ^ = 
STACK WIN 4 11649 c0 3 0 4 c 4 0 1 $T0 $ebp = $eip $T0 4 + ^ = $ebp $T0 ^ = $esp $T0 8 + =  $20 $T0 8 - ^ =  $23 $T0 12 - ^ =  $24 $T0 16 - ^ = 
STACK WIN 4 11750 58 d 0 0 0 4 0 1 $T0 $ebp = $eip $T0 4 + ^ = $ebp $T0 ^ = $esp $T0 8 + = 
STACK WIN 4 11755 4f 8 0 0 4 4 0 1 $T0 $ebp = $eip $T0 4 + ^ = $ebp $T0 ^ = $esp $T0 8 + =  $20 $T0 8 - ^ = 
STACK WIN 4 11756 4d 7 0 0 8 4 0 1 $T0 $ebp = $eip $T0 4 + ^ = $ebp $T0 ^ = $esp $T0 8 + =  $20 $T0 8 - ^ =  $23 $T0 12 - ^ = 
STACK WIN 4 11762 40 0 0 0 c 4 0 1 $T0 $ebp = $eip $T0 4 + ^ = $ebp $T0 ^ = $esp $T0 8 + =  $20 $T0 8 - ^ =  $23 $T0 12 - ^ =  $24 $T0 16 - ^ = 
STACK WIN 4 117c0 25 0 0 0 0 0 0 1 $T0 .raSearch = $eip $T0 ^ = $esp $T0 4 + = 
STACK WIN 4 117f0 29 0 0 0 0 0 0 1 $T0 .raSearch = $eip $T0 ^ = $esp $T0 4 + = 
STACK WIN 4 11830 13 0 0 0 0 0 0 1 $T0 .raSearch = $eip $T0 ^ = $esp $T0 4 + = 
STACK WIN 4 11850 88 3 0 0 0 0 0 1 $T0 $ebp = $eip $T0 4 + ^ = $ebp $T0 ^ = $esp $T0 8 + = 
STACK WIN 4 11900 58 3 0 0 0 0 0 1 $T0 $ebp = $eip $T0 4 + ^ = $ebp $T0 ^ = $esp $T0 8 + = 
STACK WIN 4 11970 b 3 0 0 0 0 0 1 $T0 $ebp = $eip $T0 4 + ^ = $ebp $T0 ^ = $esp $T0 8 + = 
STACK WIN 4 11980 237 33 0 0 10 2c 0 1 $T0 $ebp = $eip $T0 4 + ^ = $ebp $T0 ^ = $esp $T0 8 + =  $20 $T0 20 - ^ =  $23 $T0 24 - ^ =  $24 $T0 28 - ^ = 
STACK WIN 4 11b4e 1b 0 0 0 10 2c 0 1 $T0 $ebp = $T2 $esp = $T1 .raSearchStart = $eip $T1 ^ = $ebp $T0 = $esp $T1 4 + = 
STACK WIN 4 11bc0 25 1e 0 10 c c0 0 1 $T0 $ebp = $eip $T0 4 + ^ = $ebp $T0 ^ = $esp $T0 8 + =  $20 $T0 196 - ^ =  $23 $T0 200 - ^ =  $24 $T0 204 - ^ = 
STACK WIN 4 11bf0 49 1e 0 8 c c0 0 1 $T0 $ebp = $eip $T0 4 + ^ = $ebp $T0 ^ = $esp $T0 8 + =  $20 $T0 196 - ^ =  $23 $T0 200 - ^ =  $24 $T0 204 - ^ = 
STACK WIN 4 11c50 82 6 0 0 0 c 0 1 $T0 $ebp = $eip $T0 4 + ^ = $ebp $T0 ^ = $esp $T0 8 + = 
STACK WIN 4 11d00 f 3 0 0 0 0 0 1 $T0 $ebp = $eip $T0 4 + ^ = $ebp $T0 ^ = $esp $T0 8 + = 
STACK WIN 4 11d20 99 33 0 4 10 34 0 1 $T0 $ebp = $eip $T0 4 + ^ = $ebp $T0 ^ = $esp $T0 8 + =  $20 $T0 56 - ^ =  $23 $T0 60 - ^ =  $24 $T0 64 - ^ = 
STACK WIN 4 11d86 13 0 0 4 10 34 0 1 $T0 $ebp = $T2 $esp = $T1 .raSearchStart = $eip $T1 ^ = $ebp $T0 = $esp $T1 4 + = 
STACK WIN 4 11de0 ab 33 0 10 10 34 0 1 $T0 $ebp = $eip $T0 4 + ^ = $ebp $T0 ^ = $esp $T0 8 + =  $20 $T0 56 - ^ =  $23 $T0 60 - ^ =  $24 $T0 64 - ^ = 
STACK WIN 4 11e58 13 0 0 10 10 34 0 1 $T0 $ebp = $T2 $esp = $T1 .raSearchStart = $eip $T1 ^ = $ebp $T0 = $esp $T1 4 + = 
STACK WIN 4 11ec0 168 1b 0 c 0 144 0 1 $T0 $ebp = $eip $T0 4 + ^ = $ebp $T0 ^ = $esp $T0 8 + = 
STACK WIN 4 11ed7 148 4 0 c 4 144 0 1 $T0 $ebp = $eip $T0 4 + ^ = $ebp $T0 ^ = $esp $T0 8 + =  $20 $T0 328 - ^ = 
STACK WIN 4 11edb 141 0 0 c 8 144 0 1 $T0 $ebp = $eip $T0 4 + ^ = $ebp $T0 ^ = $esp $T0 8 + =  $20 $T0 328 - ^ =  $24 $T0 332 - ^ = 
STACK WIN 4 11ef1 127 0 0 c c 144 0 1 $T0 $ebp = $eip $T0 4 + ^ = $ebp $T0 ^ = $esp $T0 8 + =  $20 $T0 328 - ^ =  $24 $T0 332 - ^ =  $23 $T0 336 - ^ = 
STACK WIN 4 12030 49 1e 0 10 c c0 0 1 $T0 $ebp = $eip $T0 4 + ^ = $ebp $T0 ^ = $esp $T0 8 + =  $20 $T0 196 - ^ =  $23 $T0 200 - ^ =  $24 $T0 204 - ^ = 
STACK WIN 4 12090 4e 3 0 8 0 0 0 1 $T0 $ebp = $eip $T0 4 + ^ = $ebp $T0 ^ = $esp $T0 8 + = 
STACK WIN 4 12100 f9 13 0 8 0 408 0 1 $T0 $ebp = $eip $T0 4 + ^ = $ebp $T0 ^ = $esp $T0 8 + = 
STACK WIN 4 12130 bb 0 0 8 4 408 0 1 $T0 $ebp = $eip $T0 4 + ^ = $ebp $T0 ^ = $esp $T0 8 + =  $20 $T0 1036 - ^ = 
STACK WIN 4 12131 b9 0 0 8 8 408 0 1 $T0 $ebp = $eip $T0 4 + ^ = $ebp $T0 ^ = $esp $T0 8 + =  $20 $T0 1036 - ^ =  $23 $T0 1040 - ^ = 
STACK WIN 4 1217e 4d 0 0 8 c 408 0 1 $T0 $ebp = $eip $T0 4 + ^ = $ebp $T0 ^ = $esp $T0 8 + =  $20 $T0 1036 - ^ =  $23 $T0 1040 - ^ =  $24 $T0 1044 - ^ = 
STACK WIN 4 12240 68 d 0 10 0 4 0 1 $T0 $ebp = $eip $T0 4 + ^ = $ebp $T0 ^ = $esp $T0 8 + = 
STACK WIN 4 1224b 59 2 0 10 4 4 0 1 $T0 $ebp = $eip $T0 4 + ^ = $ebp $T0 ^ = $esp $T0 8 + =  $20 $T0 8 - ^ = 
STACK WIN 4 1224c 57 1 0 10 8 4 0 1 $T0 $ebp = $eip $T0 4 + ^ = $ebp $T0 ^ = $esp $T0 8 + =  $20 $T0 8 - ^ =  $23 $T0 12 - ^ = 
STACK WIN 4 1224d 47 0 0 10 c 4 0 1 $T0 $ebp = $eip $T0 4 + ^ = $ebp $T0 ^ = $esp $T0 8 + =  $20 $T0 8 - ^ =  $23 $T0 12 - ^ =  $24 $T0 16 - ^ = 
STACK WIN 4 122d0 1ef 1f 0 10 0 e3c 0 1 $T0 $ebp = $eip $T0 4 + ^ = $ebp $T0 ^ = $esp $T0 8 + = 
STACK WIN 4 122e7 1cf 8 0 10 4 e3c 0 1 $T0 $ebp = $eip $T0 4 + ^ = $ebp $T0 ^ = $esp $T0 8 + =  $20 $T0 3648 - ^ = 
STACK WIN 4 122eb 1c8 4 0 10 8 e3c 0 1 $T0 $ebp = $eip $T0 4 + ^ = $ebp $T0 ^ = $esp $T0 8 + =  $20 $T0 3648 - ^ =  $23 $T0 3652 - ^ = 
STACK WIN 4 122ef 1c3 0 0 10 c e3c 0 1 $T0 $ebp = $eip $T0 4 + ^ = $ebp $T0 ^ = $esp $T0 8 + =  $20 $T0 3648 - ^ =  $23 $T0 3652 - ^ =  $24 $T0 3656 - ^ = 
STACK WIN 4 124c0 46 1e 0 8 c c0 0 1 $T0 $ebp = $eip $T0 4 + ^ = $ebp $T0 ^ = $esp $T0 8 + =  $20 $T0 196 - ^ =  $23 $T0 200 - ^ =  $24 $T0 204 - ^ = 
STACK WIN 4 12540 f7 13 0 4 0 404 0 1 $T0 $ebp = $eip $T0 4 + ^ = $ebp $T0 ^ = $esp $T0 8 + = 
STACK WIN 4 12564 c5 0 0 4 4 404 0 1 $T0 $ebp = $eip $T0 4 + ^ = $ebp $T0 ^ = $esp $T0 8 + =  $20 $T0 1032 - ^ = 
STACK WIN 4 12565 c3 0 0 4 8 404 0 1 $T0 $ebp = $eip $T0 4 + ^ = $ebp $T0 ^ = $esp $T0 8 + =  $20 $T0 1032 - ^ =  $23 $T0 1036 - ^ = 
STACK WIN 4 125be 4d 0 0 4 c 404 0 1 $T0 $ebp = $eip $T0 4 + ^ = $ebp $T0 ^ = $esp $T0 8 + =  $20 $T0 1032 - ^ =  $23 $T0 1036 - ^ =  $24 $T0 1040 - ^ = 
STACK WIN 4 12680 6 0 0 4 0 0 0 1 $T0 .raSearch = $eip $T0 ^ = $esp $T0 4 + = 
STACK WIN 4 12690 6 0 0 4 0 0 0 1 $T0 .raSearch = $eip $T0 ^ = $esp $T0 4 + = 
STACK WIN 4 126a0 18 3 0 4 0 0 0 1 $T0 $ebp = $eip $T0 4 + ^ = $ebp $T0 ^ = $esp $T0 8 + = 
STACK WIN 4 126c0 6 0 0 0 0 0 0 1 $T0 .raSearch = $eip $T0 ^ = $esp $T0 4 + = 
STACK WIN 4 126d0 1d 3 0 4 0 0 0 1 $T0 $ebp = $eip $T0 4 + ^ = $ebp $T0 ^ = $esp $T0 8 + = 
STACK WIN 4 12700 1d 3 0 4 0 0 0 1 $T0 $ebp = $eip $T0 4 + ^ = $ebp $T0 ^ = $esp $T0 8 + = 
STACK WIN 4 12730 23 3 0 8 0 0 0 1 $T0 $ebp = $eip $T0 4 + ^ = $ebp $T0 ^ = $esp $T0 8 + = 
STACK WIN 4 12770 65 3 0 4 0 0 0 1 $T0 $ebp = $eip $T0 4 + ^ = $ebp $T0 ^ = $esp $T0 8 + = 
STACK WIN 4 127f0 14 3 0 0 0 0 0 1 $T0 $ebp = $eip $T0 4 + ^ = $ebp $T0 ^ = $esp $T0 8 + = 
STACK WIN 4 12820 7 3 0 0 0 0 0 1 $T0 $ebp = $eip $T0 4 + ^ = $ebp $T0 ^ = $esp $T0 8 + = 
STACK WIN 4 12840 73 6 0 8 0 c 0 1 $T0 $ebp = $eip $T0 4 + ^ = $ebp $T0 ^ = $esp $T0 8 + = 
STACK WIN 4 128d0 12b 33 0 4 10 40 0 1 $T0 $ebp = $eip $T0 4 + ^ = $ebp $T0 ^ = $esp $T0 8 + =  $20 $T0 20 - ^ =  $23 $T0 24 - ^ =  $24 $T0 28 - ^ = 
STACK WIN 4 129a5 27 0 0 4 10 40 0 1 $T0 $ebp = $T2 $esp = $T1 .raSearchStart = $eip $T1 ^ = $ebp $T0 = $esp $T1 4 + = 
STACK WIN 4 12a50 5d 6 0 4 0 c 0 1 $T0 $ebp = $eip $T0 4 + ^ = $ebp $T0 ^ = $esp $T0 8 + = 
STACK WIN 4 12ae0 dd 6 0 0 0 14 0 1 $T0 $ebp = $eip $T0 4 + ^ = $ebp $T0 ^ = $esp $T0 8 + = 
STACK WIN 4 12c00 7 3 0 4 0 0 0 1 $T0 $ebp = $eip $T0 4 + ^ = $ebp $T0 ^ = $esp $T0 8 + = 
STACK WIN 4 12c10 a9 4 0 0 0 4 0 1 $T0 $ebp = $eip $T0 4 + ^ = $ebp $T0 ^ = $esp $T0 8 + = 
STACK WIN 4 12cf0 f1 30 0 4 10 24 0 1 $T0 $ebp = $eip $T0 4 + ^ = $ebp $T0 ^ = $esp $T0 8 + =  $20 $T0 20 - ^ =  $23 $T0 24 - ^ =  $24 $T0 28 - ^ = 
STACK WIN 4 12dc1 b 0 0 4 10 24 0 1 $T0 $ebp = $T2 $esp = $T1 .raSearchStart = $eip $T1 ^ = $ebp $T0 = $esp $T1 4 + = 
STACK WIN 4 12e20 2b 4 0 4 0 4 0 1 $T0 $ebp = $eip $T0 4 + ^ = $ebp $T0 ^ = $esp $T0 8 + = 
STACK WIN 4 12e60 25 1 0 0 0 0 0 1 $T0 .raSearch = $eip $T0 ^ = $esp $T0 4 + = 
STACK WIN 4 12e61 23 0 0 0 4 0 0 1 $T0 .raSearch = $eip $T0 ^ = $esp $T0 4 + =  $23 $T0 4 - ^ = 
STACK WIN 4 12e90 25 1 0 0 0 0 0 1 $T0 .raSearch = $eip $T0 ^ = $esp $T0 4 + = 
STACK WIN 4 12e91 23 0 0 0 4 0 0 1 $T0 .raSearch = $eip $T0 ^ = $esp $T0 4 + =  $23 $T0 4 - ^ = 
STACK WIN 4 12ed0 26 3 0 18 0 0 0 1 $T0 $ebp = $eip $T0 4 + ^ = $ebp $T0 ^ = $esp $T0 8 + = 
STACK WIN 4 12f00 35 3 0 0 0 0 0 1 $T0 $ebp = $eip $T0 4 + ^ = $ebp $T0 ^ = $esp $T0 8 + = 
STACK WIN 4 12f60 27 3 0 10 0 0 0 1 $T0 $ebp = $eip $T0 4 + ^ = $ebp $T0 ^ = $esp $T0 8 + = 
STACK WIN 4 12f90 136 13 0 0 0 414 0 1 $T0 $ebp = $eip $T0 4 + ^ = $ebp $T0 ^ = $esp $T0 8 + = 
STACK WIN 4 12fd1 e7 0 0 0 4 414 0 1 $T0 $ebp = $eip $T0 4 + ^ = $ebp $T0 ^ = $esp $T0 8 + =  $23 $T0 1048 - ^ = 
STACK WIN 4 13120 215 1b 0 0 0 224 0 1 $T0 $ebp = $eip $T0 4 + ^ = $ebp $T0 ^ = $esp $T0 8 + = 
STACK WIN 4 13134 1f8 7 0 0 4 224 0 1 $T0 $ebp = $eip $T0 4 + ^ = $ebp $T0 ^ = $esp $T0 8 + =  $20 $T0 552 - ^ = 
STACK WIN 4 1313b 1ee 0 0 0 8 224 0 1 $T0 $ebp = $eip $T0 4 + ^ = $ebp $T0 ^ = $esp $T0 8 + =  $20 $T0 552 - ^ =  $24 $T0 556 - ^ = 
STACK WIN 4 1317e 1aa 0 0 0 c 224 0 1 $T0 $ebp = $eip $T0 4 + ^ = $ebp $T0 ^ = $esp $T0 8 + =  $20 $T0 552 - ^ =  $24 $T0 556 - ^ =  $23 $T0 560 - ^ = 
STACK WIN 4 133c0 cf 17 0 c 0 60c 0 1 $T0 $ebp = $eip $T0 4 + ^ = $ebp $T0 ^ = $esp $T0 8 + = 
STACK WIN 4 133d7 af 0 0 c 4 60c 0 1 $T0 $ebp = $eip $T0 4 + ^ = $ebp $T0 ^ = $esp $T0 8 + =  $23 $T0 1552 - ^ = 
STACK WIN 4 134d0 2ae 13 0 18 0 44 0 1 $T0 $ebp = $eip $T0 4 + ^ = $ebp $T0 ^ = $esp $T0 8 + = 
STACK WIN 4 134e3 297 0 0 18 4 44 0 1 $T0 $ebp = $eip $T0 4 + ^ = $ebp $T0 ^ = $esp $T0 8 + =  $20 $T0 72 - ^ = 
STACK WIN 4 13533 244 0 0 18 8 44 0 1 $T0 $ebp = $eip $T0 4 + ^ = $ebp $T0 ^ = $esp $T0 8 + =  $20 $T0 72 - ^ =  $23 $T0 76 - ^ = 
STACK WIN 4 1354e 228 0 0 18 c 44 0 1 $T0 $ebp = $eip $T0 4 + ^ = $ebp $T0 ^ = $esp $T0 8 + =  $20 $T0 72 - ^ =  $23 $T0 76 - ^ =  $24 $T0 80 - ^ = 
STACK WIN 4 13830 f 0 0 0 0 0 0 1 $T0 .raSearch = $eip $T0 ^ = $esp $T0 4 + = 
STACK WIN 4 13890 46 3 0 4 0 0 0 1 $T0 $ebp = $eip $T0 4 + ^ = $ebp $T0 ^ = $esp $T0 8 + = 
STACK WIN 4 138f0 102 9 0 0 0 324 0 1 $T0 $ebp = $eip $T0 4 + ^ = $ebp $T0 ^ = $esp $T0 8 + = 
STACK WIN 4 13a40 c 3 0 0 0 0 0 1 $T0 $ebp = $eip $T0 4 + ^ = $ebp $T0 ^ = $esp $T0 8 + = 
STACK WIN 4 13a50 d2 9 0 4 0 31c 0 1 $T0 $ebp = $eip $T0 4 + ^ = $ebp $T0 ^ = $esp $T0 8 + = 
STACK WIN 4 13b60 125 9 0 c 0 320 0 1 $T0 $ebp = $eip $T0 4 + ^ = $ebp $T0 ^ = $esp $T0 8 + = 
STACK WIN 0 11b4e 1b 0 0 0 0 0 0 0 0
STACK WIN 0 11d86 13 0 0 0 0 0 0 0 0
STACK WIN 0 11e58 13 0 0 0 0 0 0 0 0
STACK WIN 0 129a5 27 0 0 0 0 0 0 0 0
STACK WIN 0 12dc1 b 0 0 0 0 0 0 0 0
